; Function Attrs: mustprogress uwtable
define void @_ZN3gmx14stripExtensionERKNSt10filesystem7__cxx114pathE(ptr dead_on_unwind noalias writable sret(%"class.std::filesystem::__cxx11::path") align 8 %0, ptr noundef nonnull align 8 dereferenceable(40) %1) local_unnamed_addr #0 personality ptr @__gxx_personality_v0 {
  %3 = alloca %"class.std::allocator", align 1
  %4 = alloca %"class.std::filesystem::__cxx11::path", align 8
  %5 = alloca %"class.std::__cxx11::basic_string", align 8
  %6 = alloca %"class.std::filesystem::__cxx11::path", align 8
  call void @_ZNKSt10filesystem7__cxx114path11parent_pathEv(ptr dead_on_unwind nonnull writable sret(%"class.std::filesystem::__cxx11::path") align 8 %4, ptr noundef nonnull align 8 dereferenceable(40) %1)
  invoke void @_ZNKSt10filesystem7__cxx114path4stemEv(ptr dead_on_unwind nonnull writable sret(%"class.std::filesystem::__cxx11::path") align 8 %6, ptr noundef nonnull align 8 dereferenceable(40) %1)
          to label %7 unwind label %24

7:                                                ; preds = %2
  call void @llvm.lifetime.start.p0(i64 1, ptr nonnull %3)
  call void @_ZNSaIcEC1Ev(ptr noundef nonnull align 1 dereferenceable(1) %3) #20, !noalias !14
  %8 = call noundef ptr @_ZNKSt7__cxx1112basic_stringIcSt11char_traitsIcESaIcEE5c_strEv(ptr noundef nonnull align 8 dereferenceable(32) %6) #20, !noalias !17
  %9 = call noundef i64 @_ZNKSt7__cxx1112basic_stringIcSt11char_traitsIcESaIcEE6lengthEv(ptr noundef nonnull align 8 dereferenceable(32) %6) #20, !noalias !17
  invoke void @_ZNSt7__cxx1112basic_stringIcSt11char_traitsIcESaIcEEC1EPKcmRKS3_(ptr noundef nonnull align 8 dereferenceable(32) %5, ptr noundef %8, i64 noundef %9, ptr noundef nonnull align 1 dereferenceable(1) %3)
          to label %11 unwind label %.body

.body:                                            ; preds = %7
  %10 = landingpad { ptr, i32 }
          cleanup
  call void @_ZNSaIcED1Ev(ptr noundef nonnull align 1 dereferenceable(1) %3) #20
  call void @_ZNSt10filesystem7__cxx114pathD2Ev(ptr noundef nonnull align 8 dereferenceable(40) %6) #20
  br label %28

11:                                               ; preds = %7
  call void @_ZNSaIcED1Ev(ptr noundef nonnull align 1 dereferenceable(1) %3) #20
  call void @llvm.lifetime.end.p0(i64 1, ptr nonnull %3)
  %12 = getelementptr inbounds i8, ptr %6, i64 32
  %13 = load ptr, ptr %12, align 8
  %.not.i.i.i = icmp eq ptr %13, null
  br i1 %.not.i.i.i, label %_ZNSt10filesystem7__cxx114pathD2Ev.exit, label %14

14:                                               ; preds = %11
  call void @_ZNKSt10filesystem7__cxx114path5_List13_Impl_deleterclEPNS2_5_ImplE(ptr noundef nonnull align 1 dereferenceable(1) %12, ptr noundef nonnull %13) #20
  br label %_ZNSt10filesystem7__cxx114pathD2Ev.exit

_ZNSt10filesystem7__cxx114pathD2Ev.exit:          ; preds = %11, %14
  store ptr null, ptr %12, align 8
  call void @_ZNSt7__cxx1112basic_stringIcSt11char_traitsIcESaIcEED1Ev(ptr noundef nonnull align 8 dereferenceable(32) %6) #20
  %15 = call { i64, ptr } @_ZNKSt7__cxx1112basic_stringIcSt11char_traitsIcESaIcEEcvSt17basic_string_viewIcS2_EEv(ptr noundef nonnull align 8 dereferenceable(32) %5) #20
  %16 = extractvalue { i64, ptr } %15, 0
  %17 = extractvalue { i64, ptr } %15, 1
  invoke void @_ZNSt10filesystem7__cxx114path9_M_appendESt17basic_string_viewIcSt11char_traitsIcEE(ptr noundef nonnull align 8 dereferenceable(40) %4, i64 %16, ptr %17)
          to label %_ZNSt10filesystem7__cxx114path6appendINSt7__cxx1112basic_stringIcSt11char_traitsIcESaIcEEEEERNSt9enable_ifIX13__is_path_srcIT_EES1_E4typeERKSA_.exit unwind label %26

_ZNSt10filesystem7__cxx114path6appendINSt7__cxx1112basic_stringIcSt11char_traitsIcESaIcEEEEERNSt9enable_ifIX13__is_path_srcIT_EES1_E4typeERKSA_.exit: ; preds = %_ZNSt10filesystem7__cxx114pathD2Ev.exit
  invoke void @_ZNSt7__cxx1112basic_stringIcSt11char_traitsIcESaIcEEC1ERKS4_(ptr noundef nonnull align 8 dereferenceable(32) %0, ptr noundef nonnull align 8 dereferenceable(32) %4)
          to label %.noexc unwind label %26

.noexc:                                           ; preds = %_ZNSt10filesystem7__cxx114path6appendINSt7__cxx1112basic_stringIcSt11char_traitsIcESaIcEEEEERNSt9enable_ifIX13__is_path_srcIT_EES1_E4typeERKSA_.exit
  %18 = getelementptr inbounds i8, ptr %0, i64 32
  %19 = getelementptr inbounds i8, ptr %4, i64 32
  invoke void @_ZNSt10filesystem7__cxx114path5_ListC1ERKS2_(ptr noundef nonnull align 8 dereferenceable(8) %18, ptr noundef nonnull align 8 dereferenceable(8) %19)
          to label %_ZNSt10filesystem7__cxx114pathC2ERKS1_.exit unwind label %20

20:                                               ; preds = %.noexc
  %21 = landingpad { ptr, i32 }
          cleanup
  call void @_ZNSt7__cxx1112basic_stringIcSt11char_traitsIcESaIcEED1Ev(ptr noundef nonnull align 8 dereferenceable(32) %0) #20
  br label %.body5

_ZNSt10filesystem7__cxx114pathC2ERKS1_.exit:      ; preds = %.noexc
  call void @_ZNSt7__cxx1112basic_stringIcSt11char_traitsIcESaIcEED1Ev(ptr noundef nonnull align 8 dereferenceable(32) %5) #20
  %22 = load ptr, ptr %19, align 8
  %.not.i.i.i7 = icmp eq ptr %22, null
  br i1 %.not.i.i.i7, label %_ZNSt10filesystem7__cxx114pathD2Ev.exit8, label %23

23:                                               ; preds = %_ZNSt10filesystem7__cxx114pathC2ERKS1_.exit
  call void @_ZNKSt10filesystem7__cxx114path5_List13_Impl_deleterclEPNS2_5_ImplE(ptr noundef nonnull align 1 dereferenceable(1) %19, ptr noundef nonnull %22) #20
  br label %_ZNSt10filesystem7__cxx114pathD2Ev.exit8

_ZNSt10filesystem7__cxx114pathD2Ev.exit8:         ; preds = %_ZNSt10filesystem7__cxx114pathC2ERKS1_.exit, %23
  store ptr null, ptr %19, align 8
  call void @_ZNSt7__cxx1112basic_stringIcSt11char_traitsIcESaIcEED1Ev(ptr noundef nonnull align 8 dereferenceable(32) %4) #20
  ret void

24:                                               ; preds = %2
  %25 = landingpad { ptr, i32 }
          cleanup
  br label %28

26:                                               ; preds = %_ZNSt10filesystem7__cxx114path6appendINSt7__cxx1112basic_stringIcSt11char_traitsIcESaIcEEEEERNSt9enable_ifIX13__is_path_srcIT_EES1_E4typeERKSA_.exit, %_ZNSt10filesystem7__cxx114pathD2Ev.exit
  %27 = landingpad { ptr, i32 }
          cleanup
  br label %.body5

.body5:                                           ; preds = %20, %26
  %eh.lpad-body6 = phi { ptr, i32 } [ %27, %26 ], [ %21, %20 ]
  call void @_ZNSt7__cxx1112basic_stringIcSt11char_traitsIcESaIcEED1Ev(ptr noundef nonnull align 8 dereferenceable(32) %5) #20
  br label %28

28:                                               ; preds = %.body5, %.body, %24
  %.pn = phi { ptr, i32 } [ %eh.lpad-body6, %.body5 ], [ %10, %.body ], [ %25, %24 ]
  call void @_ZNSt10filesystem7__cxx114pathD2Ev(ptr noundef nonnull align 8 dereferenceable(40) %4) #20
  resume { ptr, i32 } %.pn
}